; Function Attrs: mustprogress uwtable
define hidden void @_ZN4cvc58internal6theory11quantifiers11TermDbSygus9mkGenericERKNS0_5DTypeEiRSt3mapIiNS0_12NodeTemplateILb1EEESt4lessIiESaISt4pairIKiS9_EEEb(ptr noalias sret(%"class.cvc5::internal::NodeTemplate") align 8 %agg.result, ptr noundef nonnull align 8 dereferenceable(1040) %this, ptr noundef nonnull align 8 dereferenceable(448) %dt, i32 noundef %c, ptr noundef nonnull align 8 dereferenceable(48) %pre, i1 noundef zeroext %doBetaRed) local_unnamed_addr #3 align 2 personality ptr @__gxx_personality_v0 {
entry:
  %var_count = alloca %"class.std::map.468", align 8
  %0 = getelementptr inbounds i8, ptr %var_count, i64 8
  store i32 0, ptr %0, align 8
  %_M_parent.i.i.i.i.i = getelementptr inbounds i8, ptr %var_count, i64 16
  store ptr null, ptr %_M_parent.i.i.i.i.i, align 8
  %_M_left.i.i.i.i.i = getelementptr inbounds i8, ptr %var_count, i64 24
  store ptr %0, ptr %_M_left.i.i.i.i.i, align 8
  %_M_right.i.i.i.i.i = getelementptr inbounds i8, ptr %var_count, i64 32
  store ptr %0, ptr %_M_right.i.i.i.i.i, align 8
  %_M_node_count.i.i.i.i.i = getelementptr inbounds i8, ptr %var_count, i64 40
  store i64 0, ptr %_M_node_count.i.i.i.i.i, align 8
  invoke void @_ZN4cvc58internal6theory11quantifiers11TermDbSygus9mkGenericERKNS0_5DTypeEjRSt3mapINS0_8TypeNodeEiSt4lessIS8_ESaISt4pairIKS8_iEEERS7_IiNS0_12NodeTemplateILb1EEES9_IiESaISB_IKiSI_EEEb(ptr sret(%"class.cvc5::internal::NodeTemplate") align 8 %agg.result, ptr noundef nonnull align 8 dereferenceable(1040) %this, ptr noundef nonnull align 8 dereferenceable(448) %dt, i32 noundef %c, ptr noundef nonnull align 8 dereferenceable(48) %var_count, ptr noundef nonnull align 8 dereferenceable(48) %pre, i1 noundef zeroext %doBetaRed)
          to label %invoke.cont unwind label %lpad

invoke.cont:                                      ; preds = %entry
  %1 = load ptr, ptr %_M_parent.i.i.i.i.i, align 8
  invoke void @_ZNSt8_Rb_treeIN4cvc58internal8TypeNodeESt4pairIKS2_iESt10_Select1stIS5_ESt4lessIS2_ESaIS5_EE8_M_eraseEPSt13_Rb_tree_nodeIS5_E(ptr noundef nonnull align 8 dereferenceable(48) %var_count, ptr noundef %1)
          to label %_ZNSt3mapIN4cvc58internal8TypeNodeEiSt4lessIS2_ESaISt4pairIKS2_iEEED2Ev.exit unwind label %terminate.lpad.i.i

terminate.lpad.i.i:                               ; preds = %invoke.cont
  %2 = landingpad { ptr, i32 }
          catch ptr null
  %3 = extractvalue { ptr, i32 } %2, 0
  call void @__clang_call_terminate(ptr %3) #23
  unreachable

_ZNSt3mapIN4cvc58internal8TypeNodeEiSt4lessIS2_ESaISt4pairIKS2_iEEED2Ev.exit: ; preds = %invoke.cont
  ret void

lpad:                                             ; preds = %entry
  %4 = landingpad { ptr, i32 }
          cleanup
  call void @_ZNSt3mapIN4cvc58internal8TypeNodeEiSt4lessIS2_ESaISt4pairIKS2_iEEED2Ev(ptr noundef nonnull align 8 dereferenceable(48) %var_count) #22
  resume { ptr, i32 } %4
}